target datalayout = "e-m:e-p270:32:32-p271:32:32-p272:64:64-i64:64-i128:128-f80:128-n8:16:32:64-S128"
target triple = "x86_64-pc-linux-gnu"

%struct._DtBauhausWidget = type { %struct._GtkDrawingArea, i32, ptr, ptr, i32, [256 x i8], i32, ptr, i32, ptr, ptr, i32, ptr, i32, i32, i32, %struct._GtkBorder, %struct._GtkBorder, i32, %union.dt_bauhaus_data_t }
%struct._GtkDrawingArea = type { %struct._GtkWidget, ptr }
%struct._GtkWidget = type { %struct._GObject, ptr }
%struct._GObject = type { %struct._GTypeInstance, i32, ptr }
%struct._GTypeInstance = type { ptr }
%struct._GtkBorder = type { i16, i16, i16, i16 }
%union.dt_bauhaus_data_t = type { %struct.dt_bauhaus_slider_data_t }
%struct.dt_bauhaus_slider_data_t = type { float, float, float, float, float, float, float, float, float, float, i32, ptr, i32, ptr, i8, ptr, float, float, i8, i32, ptr }

@.str.62 = private unnamed_addr constant [11 x i8] c"\0A[%s , %s]\00", align 1

; Function Attrs: nounwind uwtable
define internal void @_slider_zoom_toast(ptr noundef %0) #0 {
  %2 = alloca ptr, align 8
  %3 = alloca ptr, align 8
  %4 = alloca ptr, align 8
  %5 = alloca ptr, align 8
  store ptr %0, ptr %2, align 8, !tbaa !17
  call void @llvm.lifetime.start.p0(i64 8, ptr %3) #13
  %6 = load ptr, ptr %2, align 8, !tbaa !17
  %7 = getelementptr inbounds nuw %struct._DtBauhausWidget, ptr %6, i32 0, i32 19
  store ptr %7, ptr %3, align 8, !tbaa !140
  call void @llvm.lifetime.start.p0(i64 8, ptr %4) #13
  %8 = load ptr, ptr %2, align 8, !tbaa !17
  %9 = call i64 @gtk_widget_get_type() #14
  %10 = call ptr @g_type_check_instance_cast(ptr noundef %8, i64 noundef %9)
  %11 = load ptr, ptr %3, align 8, !tbaa !140
  %12 = getelementptr inbounds nuw %struct.dt_bauhaus_slider_data_t, ptr %11, i32 0, i32 16
  %13 = load float, ptr %12, align 8, !tbaa !149
  %14 = fcmp reassoc nsz arcp contract afn ogt float %13, 0.000000e+00
  br i1 %14, label %15, label %19

15:                                               ; preds = %1
  %16 = load ptr, ptr %3, align 8, !tbaa !140
  %17 = getelementptr inbounds nuw %struct.dt_bauhaus_slider_data_t, ptr %16, i32 0, i32 4
  %18 = load float, ptr %17, align 8, !tbaa !148
  br label %23

19:                                               ; preds = %1
  %20 = load ptr, ptr %3, align 8, !tbaa !140
  %21 = getelementptr inbounds nuw %struct.dt_bauhaus_slider_data_t, ptr %20, i32 0, i32 5
  %22 = load float, ptr %21, align 4, !tbaa !147
  br label %23

23:                                               ; preds = %19, %15
  %24 = phi reassoc nsz arcp contract afn float [ %18, %15 ], [ %22, %19 ]
  %25 = call ptr @dt_bauhaus_slider_get_text(ptr noundef %10, float noundef %24)
  store ptr %25, ptr %4, align 8, !tbaa !171
  call void @llvm.lifetime.start.p0(i64 8, ptr %5) #13
  %26 = load ptr, ptr %2, align 8, !tbaa !17
  %27 = call i64 @gtk_widget_get_type() #14
  %28 = call ptr @g_type_check_instance_cast(ptr noundef %26, i64 noundef %27)
  %29 = load ptr, ptr %3, align 8, !tbaa !140
  %30 = getelementptr inbounds nuw %struct.dt_bauhaus_slider_data_t, ptr %29, i32 0, i32 16
  %31 = load float, ptr %30, align 8, !tbaa !149
  %32 = fcmp reassoc nsz arcp contract afn ogt float %31, 0.000000e+00
  br i1 %32, label %33, label %37

33:                                               ; preds = %23
  %34 = load ptr, ptr %3, align 8, !tbaa !140
  %35 = getelementptr inbounds nuw %struct.dt_bauhaus_slider_data_t, ptr %34, i32 0, i32 5
  %36 = load float, ptr %35, align 4, !tbaa !147
  br label %41

37:                                               ; preds = %23
  %38 = load ptr, ptr %3, align 8, !tbaa !140
  %39 = getelementptr inbounds nuw %struct.dt_bauhaus_slider_data_t, ptr %38, i32 0, i32 4
  %40 = load float, ptr %39, align 8, !tbaa !148
  br label %41

41:                                               ; preds = %37, %33
  %42 = phi reassoc nsz arcp contract afn float [ %36, %33 ], [ %40, %37 ]
  %43 = call ptr @dt_bauhaus_slider_get_text(ptr noundef %28, float noundef %42)
  store ptr %43, ptr %5, align 8, !tbaa !171
  %44 = load ptr, ptr %2, align 8, !tbaa !17
  %45 = getelementptr inbounds nuw %struct._DtBauhausWidget, ptr %44, i32 0, i32 2
  %46 = load ptr, ptr %45, align 8, !tbaa !194
  %47 = load ptr, ptr %2, align 8, !tbaa !17
  %48 = call i64 @gtk_widget_get_type() #14
  %49 = call ptr @g_type_check_instance_cast(ptr noundef %47, i64 noundef %48)
  %50 = load ptr, ptr %4, align 8, !tbaa !171
  %51 = load ptr, ptr %5, align 8, !tbaa !171
  call void (ptr, ptr, ptr, ...) @dt_action_widget_toast(ptr noundef %46, ptr noundef %49, ptr noundef @.str.62, ptr noundef %50, ptr noundef %51)
  %52 = load ptr, ptr %4, align 8, !tbaa !171
  call void @g_free(ptr noundef %52)
  %53 = load ptr, ptr %5, align 8, !tbaa !171
  call void @g_free(ptr noundef %53)
  call void @llvm.lifetime.end.p0(i64 8, ptr %5) #13
  call void @llvm.lifetime.end.p0(i64 8, ptr %4) #13
  call void @llvm.lifetime.end.p0(i64 8, ptr %3) #13
  ret void
}