; Function Attrs: nounwind uwtable
define internal fastcc void @_slider_zoom_toast(ptr noundef %0) unnamed_addr #0 {
  %2 = tail call i64 @gtk_widget_get_type() #20
  %3 = tail call ptr @g_type_check_instance_cast(ptr noundef %0, i64 noundef %2) #19
  %4 = getelementptr inbounds nuw i8, ptr %0, i64 496
  %5 = load float, ptr %4, align 8, !tbaa !122
  %6 = fcmp reassoc nsz arcp contract afn ogt float %5, 0.000000e+00
  %7 = getelementptr inbounds nuw i8, ptr %0, i64 424
  %8 = getelementptr inbounds nuw i8, ptr %0, i64 428
  %.in = select i1 %6, ptr %7, ptr %8
  %9 = load float, ptr %.in, align 4, !tbaa !144
  %10 = tail call ptr @dt_bauhaus_slider_get_text(ptr noundef %3, float noundef %9)
  %11 = tail call ptr @g_type_check_instance_cast(ptr noundef %0, i64 noundef %2) #19
  %12 = load float, ptr %4, align 8, !tbaa !122
  %13 = fcmp reassoc nsz arcp contract afn ogt float %12, 0.000000e+00
  %.in15 = select i1 %13, ptr %8, ptr %7
  %14 = load float, ptr %.in15, align 4, !tbaa !144
  %15 = tail call ptr @dt_bauhaus_slider_get_text(ptr noundef %11, float noundef %14)
  %16 = getelementptr inbounds nuw i8, ptr %0, i64 48
  %17 = load ptr, ptr %16, align 8, !tbaa !161
  %18 = tail call ptr @g_type_check_instance_cast(ptr noundef %0, i64 noundef %2) #19
  tail call void (ptr, ptr, ptr, ...) @dt_action_widget_toast(ptr noundef %17, ptr noundef %18, ptr noundef nonnull @.str.62, ptr noundef %10, ptr noundef %15) #19
  tail call void @g_free(ptr noundef %10) #19
  tail call void @g_free(ptr noundef %15) #19
  ret void
}